Certificate:
    Data:
        Version: 3 (0x2)
        Serial Number: 1 (0x1)
    Signature Algorithm: sha256WithRSAEncryption
        Issuer: C=CN, ST=SH, L=Shanghai, O=Fudan university, OU=MyOrganizationalUnit, CN=server/name=EasyRSA/emailAddress=zhujiaye1@gmail.com
        Validity
            Not Before: Dec 15 09:02:49 2014 GMT
            Not After : Dec 12 09:02:49 2024 GMT
        Subject: C=CN, ST=SH, L=Shanghai, O=Fudan university, OU=MyOrganizationalUnit, CN=server/name=EasyRSA/emailAddress=zhujiaye1@gmail.com
        Subject Public Key Info:
            Public Key Algorithm: rsaEncryption
                Public-Key: (2048 bit)
                Modulus:
                    00:aa:46:35:34:5a:47:b9:9d:67:ea:9b:10:0f:03:
                    0a:64:24:98:6d:07:be:b0:97:ac:63:12:a6:6a:93:
                    ec:5f:c8:ee:2d:c2:9c:85:68:cc:ef:2e:19:11:4e:
                    44:62:03:d9:0d:b2:41:a1:86:33:b1:73:ac:fb:58:
                    32:8c:7e:8f:d1:20:de:57:65:c4:91:ee:13:91:3a:
                    b8:59:ce:5d:b4:97:01:e0:6c:e1:3f:69:7d:bd:70:
                    fc:b5:ba:ce:58:a9:b7:bf:9e:a4:41:f7:d7:ea:ab:
                    a2:12:72:82:3a:7e:87:2c:60:af:ff:5b:61:7d:2c:
                    cd:6e:08:f2:d1:58:58:81:19:47:d4:cf:4f:13:49:
                    a7:89:73:3a:37:07:23:55:5a:e1:e8:e5:bc:c0:52:
                    ec:58:19:8d:e0:78:ec:f0:08:94:1e:47:96:00:4b:
                    84:0f:af:ca:bb:51:a7:22:6a:10:20:e9:d9:c2:88:
                    4b:31:6b:1f:32:07:d4:bd:21:4e:bf:91:8a:64:b4:
                    60:24:21:84:d7:bf:bb:42:15:a0:44:48:47:ee:7e:
                    5a:d6:e4:fb:18:93:3e:54:4a:ed:f5:8d:cc:7b:f6:
                    18:10:98:2e:22:4d:a9:66:39:35:65:ca:5e:2b:2b:
                    f7:11:ec:75:57:e8:a8:3f:fb:02:73:13:d8:fb:4f:
                    33:31
                Exponent: 65537 (0x10001)
        X509v3 extensions:
            X509v3 Basic Constraints: 
                CA:FALSE
            Netscape Cert Type: 
                SSL Server
            Netscape Comment: 
                Easy-RSA Generated Server Certificate
            X509v3 Subject Key Identifier: 
                B0:C1:A4:D8:03:01:D4:26:3B:EA:AF:44:80:A3:7C:AE:61:32:18:33
            X509v3 Authority Key Identifier: 
                keyid:09:B3:C9:C2:E7:17:2B:4C:77:15:01:30:B9:6F:88:18:EB:B1:98:01
                DirName:/C=CN/ST=SH/L=Shanghai/O=Fudan university/OU=MyOrganizationalUnit/CN=server/name=EasyRSA/emailAddress=zhujiaye1@gmail.com
                serial:94:D7:DB:54:D7:9F:72:F1

            X509v3 Extended Key Usage: 
                TLS Web Server Authentication
            X509v3 Key Usage: 
                Digital Signature, Key Encipherment
            X509v3 Subject Alternative Name: 
                DNS:server
    Signature Algorithm: sha256WithRSAEncryption
         62:33:0e:12:e6:4b:59:41:fd:dc:a0:7a:2f:a2:cd:4c:9d:aa:
         db:1f:53:22:c1:ac:ed:68:75:03:65:5b:2b:ce:4c:37:5b:4c:
         e6:00:f5:f6:25:7d:4c:be:5a:14:b2:d0:bc:34:30:bd:e6:a1:
         f3:d6:c4:81:64:b2:7a:5a:d2:53:84:45:b8:82:1e:a5:81:a9:
         e4:ee:1e:ec:b1:69:59:d0:52:e3:49:c7:b5:65:0a:fa:2f:ab:
         28:ea:97:07:6f:0a:68:93:e2:e8:cd:03:de:54:f1:76:e9:90:
         8b:05:35:c6:ae:49:9e:1f:b8:54:8b:29:c1:bd:10:25:37:f5:
         00:c3:51:5e:18:4c:e6:db:f6:f3:5b:b6:e2:ea:5c:4f:37:d9:
         1c:e3:51:9b:81:78:d5:0e:51:88:e4:bc:5c:3e:67:88:7d:f6:
         65:b1:73:06:31:f5:46:91:7c:8d:f0:ef:14:78:4c:88:09:86:
         a1:ff:b8:c9:87:5a:db:dc:f2:d2:fd:fb:a9:f0:0a:ba:e6:b9:
         87:1a:d2:e2:49:66:94:bb:48:5d:7f:c6:55:65:fe:3c:0a:72:
         7b:e4:a3:cb:87:a4:df:ac:2f:9b:32:fb:47:62:da:65:04:1c:
         94:85:80:36:88:73:04:ee:f2:b7:36:be:e2:b0:d5:4f:39:2f:
         4c:62:61:9e
-----BEGIN CERTIFICATE-----
MIIFbTCCBFWgAwIBAgIBATANBgkqhkiG9w0BAQsFADCBrjELMAkGA1UEBhMCQ04x
CzAJBgNVBAgTAlNIMREwDwYDVQQHEwhTaGFuZ2hhaTEZMBcGA1UEChMQRnVkYW4g
dW5pdmVyc2l0eTEdMBsGA1UECxMUTXlPcmdhbml6YXRpb25hbFVuaXQxDzANBgNV
BAMTBnNlcnZlcjEQMA4GA1UEKRMHRWFzeVJTQTEiMCAGCSqGSIb3DQEJARYTemh1
amlheWUxQGdtYWlsLmNvbTAeFw0xNDEyMTUwOTAyNDlaFw0yNDEyMTIwOTAyNDla
MIGuMQswCQYDVQQGEwJDTjELMAkGA1UECBMCU0gxETAPBgNVBAcTCFNoYW5naGFp
MRkwFwYDVQQKExBGdWRhbiB1bml2ZXJzaXR5MR0wGwYDVQQLExRNeU9yZ2FuaXph
dGlvbmFsVW5pdDEPMA0GA1UEAxMGc2VydmVyMRAwDgYDVQQpEwdFYXN5UlNBMSIw
IAYJKoZIhvcNAQkBFhN6aHVqaWF5ZTFAZ21haWwuY29tMIIBIjANBgkqhkiG9w0B
AQEFAAOCAQ8AMIIBCgKCAQEAqkY1NFpHuZ1n6psQDwMKZCSYbQe+sJesYxKmapPs
X8juLcKchWjM7y4ZEU5EYgPZDbJBoYYzsXOs+1gyjH6P0SDeV2XEke4TkTq4Wc5d
tJcB4GzhP2l9vXD8tbrOWKm3v56kQffX6quiEnKCOn6HLGCv/1thfSzNbgjy0VhY
gRlH1M9PE0mniXM6NwcjVVrh6OW8wFLsWBmN4Hjs8AiUHkeWAEuED6/Ku1GnImoQ
IOnZwohLMWsfMgfUvSFOv5GKZLRgJCGE17+7QhWgREhH7n5a1uT7GJM+VErt9Y3M
e/YYEJguIk2pZjk1ZcpeKyv3Eex1V+ioP/sCcxPY+08zMQIDAQABo4IBkjCCAY4w
CQYDVR0TBAIwADARBglghkgBhvhCAQEEBAMCBkAwNAYJYIZIAYb4QgENBCcWJUVh
c3ktUlNBIEdlbmVyYXRlZCBTZXJ2ZXIgQ2VydGlmaWNhdGUwHQYDVR0OBBYEFLDB
pNgDAdQmO+qvRICjfK5hMhgzMIHjBgNVHSMEgdswgdiAFAmzycLnFytMdxUBMLlv
iBjrsZgBoYG0pIGxMIGuMQswCQYDVQQGEwJDTjELMAkGA1UECBMCU0gxETAPBgNV
BAcTCFNoYW5naGFpMRkwFwYDVQQKExBGdWRhbiB1bml2ZXJzaXR5MR0wGwYDVQQL
ExRNeU9yZ2FuaXphdGlvbmFsVW5pdDEPMA0GA1UEAxMGc2VydmVyMRAwDgYDVQQp
EwdFYXN5UlNBMSIwIAYJKoZIhvcNAQkBFhN6aHVqaWF5ZTFAZ21haWwuY29tggkA
lNfbVNefcvEwEwYDVR0lBAwwCgYIKwYBBQUHAwEwCwYDVR0PBAQDAgWgMBEGA1Ud
EQQKMAiCBnNlcnZlcjANBgkqhkiG9w0BAQsFAAOCAQEAYjMOEuZLWUH93KB6L6LN
TJ2q2x9TIsGs7Wh1A2VbK85MN1tM5gD19iV9TL5aFLLQvDQwveah89bEgWSyelrS
U4RFuIIepYGp5O4e7LFpWdBS40nHtWUK+i+rKOqXB28KaJPi6M0D3lTxdumQiwU1
xq5Jnh+4VIspwb0QJTf1AMNRXhhM5tv281u24upcTzfZHONRm4F41Q5RiOS8XD5n
iH32ZbFzBjH1RpF8jfDvFHhMiAmGof+4yYda29zy0v37qfAKuua5hxrS4klmlLtI
XX/GVWX+PApye+Sjy4ek36wvmzL7R2LaZQQclIWANohzBO7ytza+4rDVTzkvTGJh
ng==
-----END CERTIFICATE-----
