Certificate:
    Data:
        Version: 3 (0x2)
        Serial Number: 2 (0x2)
    Signature Algorithm: sha256WithRSAEncryption
        Issuer: C=CN, ST=CA, L=Shanghai, O=Fudan University, OU=MyOrganizationalUnit, CN=MyCA/name=EasyRSA/emailAddress=zhujiaye1@gmail.com
        Validity
            Not Before: Oct 28 04:24:37 2014 GMT
            Not After : Oct 25 04:24:37 2024 GMT
        Subject: C=CN, ST=CA, L=Shanghai, O=Fudan University, OU=MyOrganizationalUnit, CN=client1/name=EasyRSA/emailAddress=zhujiaye1@gmail.com
        Subject Public Key Info:
            Public Key Algorithm: rsaEncryption
                Public-Key: (2048 bit)
                Modulus:
                    00:c8:b5:3b:16:06:71:8b:58:d6:47:51:e4:74:79:
                    82:92:b6:22:26:15:dd:a8:9e:c6:4e:d8:1f:10:72:
                    0f:ea:7b:39:64:a2:f9:96:b5:6c:44:21:12:f9:fc:
                    e3:bc:17:72:ec:aa:e4:fb:35:24:a4:18:c1:ed:6e:
                    ab:4e:94:14:fd:f9:72:3c:5e:0e:a1:10:09:0d:4b:
                    31:a3:5d:12:b5:da:50:b7:09:d4:33:36:c2:22:fe:
                    cb:e1:45:93:db:7e:f0:2d:b2:dc:cc:45:ff:c0:58:
                    b1:5e:41:46:9d:26:b7:7a:ae:42:5e:ed:03:dd:d3:
                    db:8f:2c:53:2e:61:58:fe:3c:ee:ee:e9:1d:01:fd:
                    94:ce:43:f3:ee:17:bb:27:6c:70:bd:8c:44:09:39:
                    66:f2:e6:35:b7:2f:3e:81:a2:94:a3:64:98:19:de:
                    c8:ca:c5:34:d2:c8:17:c8:c6:d0:ad:ec:32:c7:90:
                    73:6e:da:8f:dd:a1:a1:b8:de:0c:1b:8c:1f:4b:f6:
                    34:52:85:81:a5:c3:c0:c3:17:75:c4:f3:fd:df:0b:
                    9c:24:7c:79:e9:76:d0:c4:2b:28:02:89:bc:aa:48:
                    26:81:56:e5:d4:b9:ec:12:6f:00:10:cf:ca:ce:e2:
                    71:43:02:6a:bb:9c:d8:cc:ff:59:3a:80:0e:92:22:
                    06:d5
                Exponent: 65537 (0x10001)
        X509v3 extensions:
            X509v3 Basic Constraints: 
                CA:FALSE
            Netscape Comment: 
                Easy-RSA Generated Certificate
            X509v3 Subject Key Identifier: 
                B2:B9:BC:AB:B2:0F:09:20:35:56:B3:FC:A1:DB:C8:12:13:14:6F:51
            X509v3 Authority Key Identifier: 
                keyid:B4:98:07:21:87:D9:AD:33:74:15:E3:03:E2:E9:C8:BE:F5:48:F0:5F
                DirName:/C=CN/ST=CA/L=Shanghai/O=Fudan University/OU=MyOrganizationalUnit/CN=MyCA/name=EasyRSA/emailAddress=zhujiaye1@gmail.com
                serial:90:8C:E7:CE:6D:34:F0:76

            X509v3 Extended Key Usage: 
                TLS Web Client Authentication
            X509v3 Key Usage: 
                Digital Signature
            X509v3 Subject Alternative Name: 
                DNS:client1
    Signature Algorithm: sha256WithRSAEncryption
         a9:3f:25:2d:41:7c:56:24:b5:7b:6a:3f:25:9b:2d:01:d6:a1:
         62:5b:75:74:c3:3e:9b:7e:2e:95:e3:0d:74:96:e7:10:29:db:
         0b:eb:0f:b5:76:2b:b6:57:02:7c:2a:21:de:70:a4:4e:1e:db:
         e7:68:af:84:b1:ef:de:48:99:3d:75:51:c2:54:eb:2d:e7:ba:
         ee:64:18:d2:af:10:90:15:0b:6e:f7:ae:bc:c9:b8:91:a0:67:
         95:4d:72:7d:0b:31:8e:42:71:70:7d:60:13:45:39:cb:ff:8a:
         15:72:19:50:c4:c2:4c:d3:15:a6:e0:6b:1e:0d:66:e6:99:e1:
         bd:cd:39:50:da:be:64:2b:a7:ed:0a:a2:d8:c0:da:2b:91:7f:
         62:72:90:1f:ae:35:8d:65:57:50:11:bf:4c:94:17:83:94:73:
         2c:ee:8c:ff:00:91:27:7b:59:cb:ac:53:47:dc:d5:b2:25:d2:
         6a:b8:70:5e:e3:bf:9f:33:83:69:3b:b9:13:05:52:c1:7f:33:
         b3:de:6d:93:d9:a4:41:1e:28:cc:e6:87:3e:75:8f:29:bb:b1:
         67:78:aa:ce:50:5a:b5:d3:b8:77:a5:62:87:f4:fd:35:93:bc:
         40:e2:02:d1:cd:49:f3:3f:7f:c0:15:2c:76:6b:e1:41:7a:02:
         27:80:2b:7c
-----BEGIN CERTIFICATE-----
MIIFUTCCBDmgAwIBAgIBAjANBgkqhkiG9w0BAQsFADCBrDELMAkGA1UEBhMCQ04x
CzAJBgNVBAgTAkNBMREwDwYDVQQHEwhTaGFuZ2hhaTEZMBcGA1UEChMQRnVkYW4g
VW5pdmVyc2l0eTEdMBsGA1UECxMUTXlPcmdhbml6YXRpb25hbFVuaXQxDTALBgNV
BAMTBE15Q0ExEDAOBgNVBCkTB0Vhc3lSU0ExIjAgBgkqhkiG9w0BCQEWE3podWpp
YXllMUBnbWFpbC5jb20wHhcNMTQxMDI4MDQyNDM3WhcNMjQxMDI1MDQyNDM3WjCB
rzELMAkGA1UEBhMCQ04xCzAJBgNVBAgTAkNBMREwDwYDVQQHEwhTaGFuZ2hhaTEZ
MBcGA1UEChMQRnVkYW4gVW5pdmVyc2l0eTEdMBsGA1UECxMUTXlPcmdhbml6YXRp
b25hbFVuaXQxEDAOBgNVBAMTB2NsaWVudDExEDAOBgNVBCkTB0Vhc3lSU0ExIjAg
BgkqhkiG9w0BCQEWE3podWppYXllMUBnbWFpbC5jb20wggEiMA0GCSqGSIb3DQEB
AQUAA4IBDwAwggEKAoIBAQDItTsWBnGLWNZHUeR0eYKStiImFd2onsZO2B8Qcg/q
ezlkovmWtWxEIRL5/OO8F3LsquT7NSSkGMHtbqtOlBT9+XI8Xg6hEAkNSzGjXRK1
2lC3CdQzNsIi/svhRZPbfvAtstzMRf/AWLFeQUadJrd6rkJe7QPd09uPLFMuYVj+
PO7u6R0B/ZTOQ/PuF7snbHC9jEQJOWby5jW3Lz6BopSjZJgZ3sjKxTTSyBfIxtCt
7DLHkHNu2o/doaG43gwbjB9L9jRShYGlw8DDF3XE8/3fC5wkfHnpdtDEKygCibyq
SCaBVuXUuewSbwAQz8rO4nFDAmq7nNjM/1k6gA6SIgbVAgMBAAGjggF3MIIBczAJ
BgNVHRMEAjAAMC0GCWCGSAGG+EIBDQQgFh5FYXN5LVJTQSBHZW5lcmF0ZWQgQ2Vy
dGlmaWNhdGUwHQYDVR0OBBYEFLK5vKuyDwkgNVaz/KHbyBITFG9RMIHhBgNVHSME
gdkwgdaAFLSYByGH2a0zdBXjA+LpyL71SPBfoYGypIGvMIGsMQswCQYDVQQGEwJD
TjELMAkGA1UECBMCQ0ExETAPBgNVBAcTCFNoYW5naGFpMRkwFwYDVQQKExBGdWRh
biBVbml2ZXJzaXR5MR0wGwYDVQQLExRNeU9yZ2FuaXphdGlvbmFsVW5pdDENMAsG
A1UEAxMETXlDQTEQMA4GA1UEKRMHRWFzeVJTQTEiMCAGCSqGSIb3DQEJARYTemh1
amlheWUxQGdtYWlsLmNvbYIJAJCM585tNPB2MBMGA1UdJQQMMAoGCCsGAQUFBwMC
MAsGA1UdDwQEAwIHgDASBgNVHREECzAJggdjbGllbnQxMA0GCSqGSIb3DQEBCwUA
A4IBAQCpPyUtQXxWJLV7aj8lmy0B1qFiW3V0wz6bfi6V4w10lucQKdsL6w+1diu2
VwJ8KiHecKROHtvnaK+Ese/eSJk9dVHCVOst57ruZBjSrxCQFQtu9668ybiRoGeV
TXJ9CzGOQnFwfWATRTnL/4oVchlQxMJM0xWm4GseDWbmmeG9zTlQ2r5kK6ftCqLY
wNorkX9icpAfrjWNZVdQEb9MlBeDlHMs7oz/AJEne1nLrFNH3NWyJdJquHBe47+f
M4NpO7kTBVLBfzOz3m2T2aRBHijM5oc+dY8pu7FneKrOUFq107h3pWKH9P01k7xA
4gLRzUnzP3/AFSx2a+FBegIngCt8
-----END CERTIFICATE-----
