Certificate:
    Data:
        Version: 3 (0x2)
        Serial Number: 1 (0x1)
    Signature Algorithm: sha256WithRSAEncryption
        Issuer: C=CN, ST=SH, L=Shanghai, O=Fudan University, OU=MyOrganizationalUnit, CN=zhujiaye/name=EasyRSA/emailAddress=zhujiaye1@gmail.com
        Validity
            Not Before: Nov  6 11:16:13 2014 GMT
            Not After : Nov  3 11:16:13 2024 GMT
        Subject: C=CN, ST=SH, L=Shanghai, O=Fudan University, OU=MyOrganizationalUnit, CN=zhujiaye/name=EasyRSA/emailAddress=zhujiaye1@gmail.com
        Subject Public Key Info:
            Public Key Algorithm: rsaEncryption
                Public-Key: (2048 bit)
                Modulus:
                    00:c2:b0:53:b5:28:bf:67:65:d6:5e:2e:9f:0b:59:
                    38:4e:6c:0d:81:8f:7f:26:e7:e9:d1:99:3b:7e:79:
                    0f:f1:7f:fb:b3:fe:94:a8:8b:0c:2a:72:8b:31:c7:
                    e7:ad:83:04:17:9a:3f:40:59:8c:26:7a:0f:87:96:
                    4b:ab:17:80:62:d9:b0:29:3e:13:4e:01:82:ca:fa:
                    69:55:e1:a3:ba:81:4d:d9:d0:92:e0:17:b1:72:41:
                    9e:f5:c3:ae:6e:6c:46:71:50:04:c4:5c:40:30:49:
                    fe:5d:07:18:80:3f:4b:e6:86:0c:b4:db:99:71:d0:
                    a2:20:f6:d2:a9:b3:39:83:fe:74:46:2f:81:e4:37:
                    6e:e4:75:d4:6b:2f:33:d5:3d:e9:ac:8f:52:b0:14:
                    78:e8:cc:29:d0:e1:b4:27:6d:55:64:2e:8d:6a:b7:
                    43:00:a5:46:5f:86:a7:e5:42:e2:dd:aa:f9:13:13:
                    4a:0a:7d:44:24:82:31:b4:10:70:23:b8:e6:60:31:
                    04:be:fb:27:b7:2b:83:ba:34:27:8b:42:62:87:b5:
                    16:1d:a5:60:91:88:14:c1:d6:10:5c:48:24:85:6b:
                    c7:b3:90:ee:99:c1:95:14:93:37:a1:68:61:89:e8:
                    77:d6:a0:ad:34:0f:ee:44:43:32:fa:47:c6:2a:cc:
                    45:5f
                Exponent: 65537 (0x10001)
        X509v3 extensions:
            X509v3 Basic Constraints: 
                CA:FALSE
            Netscape Cert Type: 
                SSL Server
            Netscape Comment: 
                Easy-RSA Generated Server Certificate
            X509v3 Subject Key Identifier: 
                CA:70:1C:68:53:B5:92:A3:ED:D4:57:6C:8F:B9:B7:BE:E5:96:46:37
            X509v3 Authority Key Identifier: 
                keyid:D6:DF:DB:2B:53:BA:B3:65:D9:AB:30:74:DD:69:C5:B9:F0:55:4D:E5
                DirName:/C=CN/ST=SH/L=Shanghai/O=Fudan University/OU=MyOrganizationalUnit/CN=zhujiaye/name=EasyRSA/emailAddress=zhujiaye1@gmail.com
                serial:82:4C:1F:B4:B3:4F:93:18

            X509v3 Extended Key Usage: 
                TLS Web Server Authentication
            X509v3 Key Usage: 
                Digital Signature, Key Encipherment
            X509v3 Subject Alternative Name: 
                DNS:server
    Signature Algorithm: sha256WithRSAEncryption
         ac:27:fb:50:03:ee:d8:54:10:b3:4a:ed:93:5f:3f:84:a9:89:
         3f:64:45:72:e7:18:43:aa:57:a8:72:39:3b:b6:bd:13:3d:5d:
         3f:e0:03:43:3d:6c:e9:a9:c2:58:c9:15:c3:b1:12:da:d1:ad:
         63:81:87:03:1f:6b:44:86:ed:5c:3a:73:78:01:4d:64:34:25:
         f0:03:4e:44:c3:97:4d:09:6c:26:40:ec:4d:f9:a2:1a:45:90:
         bb:29:c4:80:30:73:de:4e:fd:59:d2:90:0b:d3:ed:da:84:7c:
         a1:4d:3e:34:39:6e:70:b6:a4:2a:b1:25:0e:cc:ab:32:97:94:
         a8:e9:01:bb:1c:2f:53:a3:c8:31:71:c7:ce:68:a5:51:f4:a3:
         fa:cb:51:72:dd:5a:87:e1:0f:c3:3d:00:ba:87:8f:f9:cb:b3:
         5a:35:61:8e:f8:33:99:21:28:32:af:d9:21:54:26:58:f8:40:
         eb:ca:6a:8c:b4:a6:e6:43:70:f6:d0:26:d1:66:c7:74:0c:c7:
         3f:9b:4c:19:b1:77:90:0e:2a:46:a1:0a:f9:ae:40:f6:0c:35:
         97:e0:0f:50:7f:69:c1:09:f6:ff:24:7e:fc:5e:2a:0c:c5:51:
         36:32:7d:dc:4a:18:dc:90:77:e8:52:80:c6:95:1a:9b:f7:f1:
         ff:a7:9a:72
-----BEGIN CERTIFICATE-----
MIIFczCCBFugAwIBAgIBATANBgkqhkiG9w0BAQsFADCBsDELMAkGA1UEBhMCQ04x
CzAJBgNVBAgTAlNIMREwDwYDVQQHEwhTaGFuZ2hhaTEZMBcGA1UEChMQRnVkYW4g
VW5pdmVyc2l0eTEdMBsGA1UECxMUTXlPcmdhbml6YXRpb25hbFVuaXQxETAPBgNV
BAMTCHpodWppYXllMRAwDgYDVQQpEwdFYXN5UlNBMSIwIAYJKoZIhvcNAQkBFhN6
aHVqaWF5ZTFAZ21haWwuY29tMB4XDTE0MTEwNjExMTYxM1oXDTI0MTEwMzExMTYx
M1owgbAxCzAJBgNVBAYTAkNOMQswCQYDVQQIEwJTSDERMA8GA1UEBxMIU2hhbmdo
YWkxGTAXBgNVBAoTEEZ1ZGFuIFVuaXZlcnNpdHkxHTAbBgNVBAsTFE15T3JnYW5p
emF0aW9uYWxVbml0MREwDwYDVQQDEwh6aHVqaWF5ZTEQMA4GA1UEKRMHRWFzeVJT
QTEiMCAGCSqGSIb3DQEJARYTemh1amlheWUxQGdtYWlsLmNvbTCCASIwDQYJKoZI
hvcNAQEBBQADggEPADCCAQoCggEBAMKwU7Uov2dl1l4unwtZOE5sDYGPfybn6dGZ
O355D/F/+7P+lKiLDCpyizHH562DBBeaP0BZjCZ6D4eWS6sXgGLZsCk+E04Bgsr6
aVXho7qBTdnQkuAXsXJBnvXDrm5sRnFQBMRcQDBJ/l0HGIA/S+aGDLTbmXHQoiD2
0qmzOYP+dEYvgeQ3buR11GsvM9U96ayPUrAUeOjMKdDhtCdtVWQujWq3QwClRl+G
p+VC4t2q+RMTSgp9RCSCMbQQcCO45mAxBL77J7crg7o0J4tCYoe1Fh2lYJGIFMHW
EFxIJIVrx7OQ7pnBlRSTN6FoYYnod9agrTQP7kRDMvpHxirMRV8CAwEAAaOCAZQw
ggGQMAkGA1UdEwQCMAAwEQYJYIZIAYb4QgEBBAQDAgZAMDQGCWCGSAGG+EIBDQQn
FiVFYXN5LVJTQSBHZW5lcmF0ZWQgU2VydmVyIENlcnRpZmljYXRlMB0GA1UdDgQW
BBTKcBxoU7WSo+3UV2yPube+5ZZGNzCB5QYDVR0jBIHdMIHagBTW39srU7qzZdmr
MHTdacW58FVN5aGBtqSBszCBsDELMAkGA1UEBhMCQ04xCzAJBgNVBAgTAlNIMREw
DwYDVQQHEwhTaGFuZ2hhaTEZMBcGA1UEChMQRnVkYW4gVW5pdmVyc2l0eTEdMBsG
A1UECxMUTXlPcmdhbml6YXRpb25hbFVuaXQxETAPBgNVBAMTCHpodWppYXllMRAw
DgYDVQQpEwdFYXN5UlNBMSIwIAYJKoZIhvcNAQkBFhN6aHVqaWF5ZTFAZ21haWwu
Y29tggkAgkwftLNPkxgwEwYDVR0lBAwwCgYIKwYBBQUHAwEwCwYDVR0PBAQDAgWg
MBEGA1UdEQQKMAiCBnNlcnZlcjANBgkqhkiG9w0BAQsFAAOCAQEArCf7UAPu2FQQ
s0rtk18/hKmJP2RFcucYQ6pXqHI5O7a9Ez1dP+ADQz1s6anCWMkVw7ES2tGtY4GH
Ax9rRIbtXDpzeAFNZDQl8ANORMOXTQlsJkDsTfmiGkWQuynEgDBz3k79WdKQC9Pt
2oR8oU0+NDlucLakKrElDsyrMpeUqOkBuxwvU6PIMXHHzmilUfSj+stRct1ah+EP
wz0AuoeP+cuzWjVhjvgzmSEoMq/ZIVQmWPhA68pqjLSm5kNw9tAm0WbHdAzHP5tM
GbF3kA4qRqEK+a5A9gw1l+APUH9pwQn2/yR+/F4qDMVRNjJ93EoY3JB36FKAxpUa
m/fx/6eacg==
-----END CERTIFICATE-----
