Certificate:
    Data:
        Version: 3 (0x2)
        Serial Number: 2 (0x2)
    Signature Algorithm: sha256WithRSAEncryption
        Issuer: C=CN, ST=SH, L=Shanghai, O=Fudan University, OU=MyOrganizationalUnit, CN=zhujiaye/name=EasyRSA/emailAddress=zhujiaye1@gmail.com
        Validity
            Not Before: Nov  6 11:19:56 2014 GMT
            Not After : Nov  3 11:19:56 2024 GMT
        Subject: C=CN, ST=SH, L=Shanghai, O=Fudan University, OU=MyOrganizationalUnit, CN=client/name=EasyRSA/emailAddress=zhujiaye1@gmail.com
        Subject Public Key Info:
            Public Key Algorithm: rsaEncryption
                Public-Key: (2048 bit)
                Modulus:
                    00:a9:53:18:35:30:98:69:46:cc:16:ec:75:0d:ed:
                    a4:46:92:7a:86:d3:37:c6:a2:82:4c:28:af:a4:3b:
                    03:d6:f8:58:5d:71:2f:f2:2e:91:bd:9b:47:8d:cf:
                    0e:cd:84:46:13:28:cd:bd:10:48:44:9f:50:53:6c:
                    b4:85:ab:c4:8d:6e:2a:e9:e0:51:4a:61:91:48:fa:
                    44:a3:21:0e:5c:46:b9:b3:7f:5b:29:a7:3b:1a:e5:
                    61:a5:51:5c:97:cc:74:f9:f0:90:03:40:06:4b:f7:
                    45:6c:96:27:a1:71:cc:03:22:8d:94:2a:2f:4b:f4:
                    be:dd:ad:aa:06:40:17:8d:0d:66:af:e4:5b:f9:88:
                    2c:5e:50:d8:d6:02:d3:7b:05:40:2f:23:5a:5e:7a:
                    be:e8:48:f4:ce:c0:fe:ab:82:ea:97:df:bd:ea:3c:
                    7f:ed:76:fb:1c:79:12:ba:99:9e:e7:40:84:1d:a5:
                    6b:0e:58:84:5b:5b:02:c0:3f:fb:bf:47:93:37:c4:
                    f4:fd:4d:6a:f7:d5:c0:39:7e:a9:85:81:95:ce:c8:
                    a3:e8:ef:a4:2b:e9:fb:5a:44:3c:16:eb:e5:ec:7b:
                    f5:2f:85:ed:19:32:2a:63:0c:8a:94:24:db:8a:e9:
                    72:89:97:21:db:82:c6:c5:27:2d:b3:c3:85:f5:31:
                    ed:55
                Exponent: 65537 (0x10001)
        X509v3 extensions:
            X509v3 Basic Constraints: 
                CA:FALSE
            Netscape Comment: 
                Easy-RSA Generated Certificate
            X509v3 Subject Key Identifier: 
                27:52:D5:9D:D8:99:B8:1C:66:9B:97:74:A3:26:75:24:03:92:52:3E
            X509v3 Authority Key Identifier: 
                keyid:D6:DF:DB:2B:53:BA:B3:65:D9:AB:30:74:DD:69:C5:B9:F0:55:4D:E5
                DirName:/C=CN/ST=SH/L=Shanghai/O=Fudan University/OU=MyOrganizationalUnit/CN=zhujiaye/name=EasyRSA/emailAddress=zhujiaye1@gmail.com
                serial:82:4C:1F:B4:B3:4F:93:18

            X509v3 Extended Key Usage: 
                TLS Web Client Authentication
            X509v3 Key Usage: 
                Digital Signature
            X509v3 Subject Alternative Name: 
                DNS:client
    Signature Algorithm: sha256WithRSAEncryption
         62:0f:32:78:7a:54:5e:c2:04:b1:93:d3:11:29:c3:54:0a:70:
         8a:7f:b3:f0:b1:1e:82:b9:3a:c7:cb:73:b1:d3:e5:9b:60:fa:
         40:cd:a3:9a:27:66:eb:99:55:bc:fc:e7:2a:0e:46:c1:b2:35:
         c6:9b:b6:99:7b:2f:5c:c9:f8:b7:6d:ae:e2:21:4e:ad:fe:15:
         7a:ee:fa:a3:aa:44:2d:06:9a:18:10:70:dd:3a:22:74:68:ec:
         1e:80:5c:cc:d5:cf:e0:81:a7:c4:64:ff:8a:74:5e:67:54:ff:
         42:8e:d5:b9:5d:7b:f4:46:d0:2d:08:16:33:14:f2:55:be:67:
         48:bb:5b:7e:7a:03:88:bb:a0:3a:7f:7d:93:e6:5d:37:b6:0d:
         d0:79:7b:a3:d6:3d:70:54:1c:09:75:44:3f:50:06:05:f1:10:
         bf:6a:c1:d3:8c:51:e6:44:da:b8:ce:88:d7:3d:cd:9f:09:71:
         cb:de:79:1d:db:57:81:bb:bf:f3:ab:10:87:b4:3c:8f:41:d4:
         b6:36:f6:c2:c2:2b:bb:14:8e:34:67:af:13:1e:f8:73:bf:12:
         77:91:d3:e0:86:d0:90:84:64:00:fd:fc:cf:d7:77:2f:64:1f:
         b7:16:f2:4d:6a:0d:22:63:07:a7:0b:d4:c0:07:ef:bb:2c:da:
         2e:f3:83:d5
-----BEGIN CERTIFICATE-----
MIIFVzCCBD+gAwIBAgIBAjANBgkqhkiG9w0BAQsFADCBsDELMAkGA1UEBhMCQ04x
CzAJBgNVBAgTAlNIMREwDwYDVQQHEwhTaGFuZ2hhaTEZMBcGA1UEChMQRnVkYW4g
VW5pdmVyc2l0eTEdMBsGA1UECxMUTXlPcmdhbml6YXRpb25hbFVuaXQxETAPBgNV
BAMTCHpodWppYXllMRAwDgYDVQQpEwdFYXN5UlNBMSIwIAYJKoZIhvcNAQkBFhN6
aHVqaWF5ZTFAZ21haWwuY29tMB4XDTE0MTEwNjExMTk1NloXDTI0MTEwMzExMTk1
Nlowga4xCzAJBgNVBAYTAkNOMQswCQYDVQQIEwJTSDERMA8GA1UEBxMIU2hhbmdo
YWkxGTAXBgNVBAoTEEZ1ZGFuIFVuaXZlcnNpdHkxHTAbBgNVBAsTFE15T3JnYW5p
emF0aW9uYWxVbml0MQ8wDQYDVQQDEwZjbGllbnQxEDAOBgNVBCkTB0Vhc3lSU0Ex
IjAgBgkqhkiG9w0BCQEWE3podWppYXllMUBnbWFpbC5jb20wggEiMA0GCSqGSIb3
DQEBAQUAA4IBDwAwggEKAoIBAQCpUxg1MJhpRswW7HUN7aRGknqG0zfGooJMKK+k
OwPW+FhdcS/yLpG9m0eNzw7NhEYTKM29EEhEn1BTbLSFq8SNbirp4FFKYZFI+kSj
IQ5cRrmzf1sppzsa5WGlUVyXzHT58JADQAZL90VsliehccwDIo2UKi9L9L7draoG
QBeNDWav5Fv5iCxeUNjWAtN7BUAvI1peer7oSPTOwP6rguqX373qPH/tdvsceRK6
mZ7nQIQdpWsOWIRbWwLAP/u/R5M3xPT9TWr31cA5fqmFgZXOyKPo76Qr6ftaRDwW
6+Xse/Uvhe0ZMipjDIqUJNuK6XKJlyHbgsbFJy2zw4X1Me1VAgMBAAGjggF6MIIB
djAJBgNVHRMEAjAAMC0GCWCGSAGG+EIBDQQgFh5FYXN5LVJTQSBHZW5lcmF0ZWQg
Q2VydGlmaWNhdGUwHQYDVR0OBBYEFCdS1Z3YmbgcZpuXdKMmdSQDklI+MIHlBgNV
HSMEgd0wgdqAFNbf2ytTurNl2aswdN1pxbnwVU3loYG2pIGzMIGwMQswCQYDVQQG
EwJDTjELMAkGA1UECBMCU0gxETAPBgNVBAcTCFNoYW5naGFpMRkwFwYDVQQKExBG
dWRhbiBVbml2ZXJzaXR5MR0wGwYDVQQLExRNeU9yZ2FuaXphdGlvbmFsVW5pdDER
MA8GA1UEAxMIemh1amlheWUxEDAOBgNVBCkTB0Vhc3lSU0ExIjAgBgkqhkiG9w0B
CQEWE3podWppYXllMUBnbWFpbC5jb22CCQCCTB+0s0+TGDATBgNVHSUEDDAKBggr
BgEFBQcDAjALBgNVHQ8EBAMCB4AwEQYDVR0RBAowCIIGY2xpZW50MA0GCSqGSIb3
DQEBCwUAA4IBAQBiDzJ4elRewgSxk9MRKcNUCnCKf7PwsR6CuTrHy3Ox0+WbYPpA
zaOaJ2brmVW8/OcqDkbBsjXGm7aZey9cyfi3ba7iIU6t/hV67vqjqkQtBpoYEHDd
OiJ0aOwegFzM1c/ggafEZP+KdF5nVP9CjtW5XXv0RtAtCBYzFPJVvmdIu1t+egOI
u6A6f32T5l03tg3QeXuj1j1wVBwJdUQ/UAYF8RC/asHTjFHmRNq4zojXPc2fCXHL
3nkd21eBu7/zqxCHtDyPQdS2NvbCwiu7FI40Z68THvhzvxJ3kdPghtCQhGQA/fzP
13cvZB+3FvJNag0iYwenC9TAB++7LNou84PV
-----END CERTIFICATE-----
