Certificate:
    Data:
        Version: 3 (0x2)
        Serial Number: 2 (0x2)
    Signature Algorithm: sha256WithRSAEncryption
        Issuer: C=CN, ST=SH, L=Shanghai, O=Fudan university, OU=MyOrganizationalUnit, CN=server/name=EasyRSA/emailAddress=zhujiaye1@gmail.com
        Validity
            Not Before: Dec 15 09:04:32 2014 GMT
            Not After : Dec 12 09:04:32 2024 GMT
        Subject: C=CN, ST=SH, L=Shanghai, O=Fudan university, OU=MyOrganizationalUnit, CN=client/name=EasyRSA/emailAddress=zhujiaye1@gmail.com
        Subject Public Key Info:
            Public Key Algorithm: rsaEncryption
                Public-Key: (2048 bit)
                Modulus:
                    00:f1:3e:0d:3b:c0:b9:9a:5e:f3:f7:c3:3e:ef:0c:
                    60:23:44:4c:af:22:e8:1f:89:0f:aa:a2:c3:81:2c:
                    71:b8:7c:6e:6c:f9:d8:41:8e:0b:e1:a4:10:2b:c5:
                    ba:b6:15:d1:c1:dc:23:c4:e7:39:33:81:11:56:38:
                    04:67:c7:b6:25:40:43:59:77:4e:cc:df:67:16:e1:
                    55:af:fe:18:49:39:ce:21:71:b0:7b:ae:08:57:41:
                    46:4c:7f:06:a4:ed:69:95:cf:d7:f6:bb:1c:02:2c:
                    ff:04:8c:e8:8b:c2:54:32:c1:07:aa:b6:5d:c5:5a:
                    a3:f4:bf:c5:88:52:85:38:9d:5a:95:a5:ec:bf:0a:
                    72:b2:ee:34:39:61:c0:d6:dd:72:d1:c0:3a:1a:12:
                    13:b3:ea:86:8c:8c:af:8b:d3:7b:c9:3f:25:f6:c1:
                    f9:a3:8c:e2:6b:a4:a8:45:88:7c:05:c5:61:08:c5:
                    67:66:97:3d:02:09:43:5b:4d:87:42:1a:9b:ae:b5:
                    9f:10:b7:7b:1f:56:d0:3d:18:88:29:f7:9a:10:fc:
                    95:c1:64:b0:7d:0d:4e:6b:ef:f6:7d:12:06:c0:93:
                    02:29:4e:97:67:8a:b4:dd:41:97:ad:45:76:b6:f3:
                    c3:b7:10:7f:04:74:8b:a2:8f:c4:5c:af:e7:ea:0d:
                    15:6d
                Exponent: 65537 (0x10001)
        X509v3 extensions:
            X509v3 Basic Constraints: 
                CA:FALSE
            Netscape Comment: 
                Easy-RSA Generated Certificate
            X509v3 Subject Key Identifier: 
                26:3A:DE:26:0B:5C:75:4F:82:2C:B4:4C:D8:DC:7B:38:80:BB:9D:74
            X509v3 Authority Key Identifier: 
                keyid:09:B3:C9:C2:E7:17:2B:4C:77:15:01:30:B9:6F:88:18:EB:B1:98:01
                DirName:/C=CN/ST=SH/L=Shanghai/O=Fudan university/OU=MyOrganizationalUnit/CN=server/name=EasyRSA/emailAddress=zhujiaye1@gmail.com
                serial:94:D7:DB:54:D7:9F:72:F1

            X509v3 Extended Key Usage: 
                TLS Web Client Authentication
            X509v3 Key Usage: 
                Digital Signature
            X509v3 Subject Alternative Name: 
                DNS:client
    Signature Algorithm: sha256WithRSAEncryption
         70:8f:a2:ab:0b:28:05:da:04:93:93:d3:4d:ec:ee:6f:f8:da:
         42:0a:72:3f:db:fa:08:04:d8:c9:e7:7c:5e:b8:6e:b4:b6:0f:
         d8:b3:f8:52:6d:58:42:4d:36:71:68:37:d7:ab:f6:6e:59:35:
         7e:66:42:4a:b4:58:b0:20:c6:c0:52:bf:ce:74:29:41:0d:86:
         3a:f2:26:ec:14:df:2b:a7:75:e6:27:0e:24:02:4d:b0:35:5e:
         34:24:a5:54:8c:c3:16:be:5b:b5:ad:05:8a:59:ee:c8:5a:7c:
         22:59:6d:89:5a:65:be:49:a9:95:5c:17:5f:2c:e6:4c:16:f2:
         3b:83:61:71:8a:01:f8:25:68:6b:ce:3a:2b:ac:47:48:05:11:
         40:6b:1c:07:a7:64:4c:a7:31:47:86:4b:a6:68:0c:b9:26:bf:
         b3:c6:db:96:42:3e:94:f3:8d:6d:71:4e:47:28:48:e0:a8:e7:
         2b:29:01:cd:ba:42:40:a6:0f:89:ad:24:85:62:32:77:f8:2c:
         4a:b6:88:b5:d2:e0:3a:40:54:d1:95:f9:e2:29:16:8c:dd:04:
         d2:ad:25:3f:91:ad:df:96:ae:a4:19:af:40:b6:e1:ab:35:67:
         28:56:70:1e:7c:a5:e8:54:94:9a:cd:60:ad:ee:74:08:2a:f3:
         e8:51:b1:30
-----BEGIN CERTIFICATE-----
MIIFUzCCBDugAwIBAgIBAjANBgkqhkiG9w0BAQsFADCBrjELMAkGA1UEBhMCQ04x
CzAJBgNVBAgTAlNIMREwDwYDVQQHEwhTaGFuZ2hhaTEZMBcGA1UEChMQRnVkYW4g
dW5pdmVyc2l0eTEdMBsGA1UECxMUTXlPcmdhbml6YXRpb25hbFVuaXQxDzANBgNV
BAMTBnNlcnZlcjEQMA4GA1UEKRMHRWFzeVJTQTEiMCAGCSqGSIb3DQEJARYTemh1
amlheWUxQGdtYWlsLmNvbTAeFw0xNDEyMTUwOTA0MzJaFw0yNDEyMTIwOTA0MzJa
MIGuMQswCQYDVQQGEwJDTjELMAkGA1UECBMCU0gxETAPBgNVBAcTCFNoYW5naGFp
MRkwFwYDVQQKExBGdWRhbiB1bml2ZXJzaXR5MR0wGwYDVQQLExRNeU9yZ2FuaXph
dGlvbmFsVW5pdDEPMA0GA1UEAxMGY2xpZW50MRAwDgYDVQQpEwdFYXN5UlNBMSIw
IAYJKoZIhvcNAQkBFhN6aHVqaWF5ZTFAZ21haWwuY29tMIIBIjANBgkqhkiG9w0B
AQEFAAOCAQ8AMIIBCgKCAQEA8T4NO8C5ml7z98M+7wxgI0RMryLoH4kPqqLDgSxx
uHxubPnYQY4L4aQQK8W6thXRwdwjxOc5M4ERVjgEZ8e2JUBDWXdOzN9nFuFVr/4Y
STnOIXGwe64IV0FGTH8GpO1plc/X9rscAiz/BIzoi8JUMsEHqrZdxVqj9L/FiFKF
OJ1alaXsvwpysu40OWHA1t1y0cA6GhITs+qGjIyvi9N7yT8l9sH5o4zia6SoRYh8
BcVhCMVnZpc9AglDW02HQhqbrrWfELd7H1bQPRiIKfeaEPyVwWSwfQ1Oa+/2fRIG
wJMCKU6XZ4q03UGXrUV2tvPDtxB/BHSLoo/EXK/n6g0VbQIDAQABo4IBeDCCAXQw
CQYDVR0TBAIwADAtBglghkgBhvhCAQ0EIBYeRWFzeS1SU0EgR2VuZXJhdGVkIENl
cnRpZmljYXRlMB0GA1UdDgQWBBQmOt4mC1x1T4IstEzY3Hs4gLuddDCB4wYDVR0j
BIHbMIHYgBQJs8nC5xcrTHcVATC5b4gY67GYAaGBtKSBsTCBrjELMAkGA1UEBhMC
Q04xCzAJBgNVBAgTAlNIMREwDwYDVQQHEwhTaGFuZ2hhaTEZMBcGA1UEChMQRnVk
YW4gdW5pdmVyc2l0eTEdMBsGA1UECxMUTXlPcmdhbml6YXRpb25hbFVuaXQxDzAN
BgNVBAMTBnNlcnZlcjEQMA4GA1UEKRMHRWFzeVJTQTEiMCAGCSqGSIb3DQEJARYT
emh1amlheWUxQGdtYWlsLmNvbYIJAJTX21TXn3LxMBMGA1UdJQQMMAoGCCsGAQUF
BwMCMAsGA1UdDwQEAwIHgDARBgNVHREECjAIggZjbGllbnQwDQYJKoZIhvcNAQEL
BQADggEBAHCPoqsLKAXaBJOT003s7m/42kIKcj/b+ggE2MnnfF64brS2D9iz+FJt
WEJNNnFoN9er9m5ZNX5mQkq0WLAgxsBSv850KUENhjryJuwU3yundeYnDiQCTbA1
XjQkpVSMwxa+W7WtBYpZ7shafCJZbYlaZb5JqZVcF18s5kwW8juDYXGKAfglaGvO
OiusR0gFEUBrHAenZEynMUeGS6ZoDLkmv7PG25ZCPpTzjW1xTkcoSOCo5yspAc26
QkCmD4mtJIViMnf4LEq2iLXS4DpAVNGV+eIpFozdBNKtJT+Rrd+WrqQZr0C24as1
ZyhWcB58pehUlJrNYK3udAgq8+hRsTA=
-----END CERTIFICATE-----
